; Function Attrs: nounwind uwtable
define internal ptr @syslog_LOG_MASK(ptr readnone captures(none) %0, ptr noundef %1) #0 {
  %3 = tail call i64 @PyLong_AsLong(ptr noundef %1) #5
  %4 = icmp eq i64 %3, -1
  br i1 %4, label %9, label %.split6.thread

.split6.thread:                                   ; preds = %2
  %5 = trunc i64 %3 to i32
  %6 = shl nuw i32 1, %5
  %7 = sext i32 %6 to i64
  %8 = tail call ptr @PyLong_FromLong(i64 noundef %7) #5
  br label %13

9:                                                ; preds = %2
  %10 = tail call ptr @PyErr_Occurred() #5
  %.not = icmp eq ptr %10, null
  br i1 %.not, label %11, label %13

11:                                               ; preds = %9
  %12 = tail call ptr @PyErr_Occurred() #5
  %.not8 = icmp ne ptr %12, null
  tail call void @llvm.assume(i1 %.not8)
  br label %13

13:                                               ; preds = %11, %9, %.split6.thread
  %.0 = phi ptr [ null, %9 ], [ null, %11 ], [ %8, %.split6.thread ]
  ret ptr %.0
}